; Function Attrs: mustprogress uwtable
define void @_ZNK4lean4name18get_subscript_baseEv(ptr dead_on_unwind noalias writable sret(%"class.lean::name") align 8 %0, ptr noundef nonnull align 8 dereferenceable(8) %1) local_unnamed_addr #1 align 2 {
  %3 = load ptr, ptr %1, align 8, !tbaa !6
  %4 = ptrtoint ptr %3 to i64
  %5 = and i64 %4, 1
  %.not.i.i.i.i.i = icmp eq i64 %5, 0
  br i1 %.not.i.i.i.i.i, label %_ZNK4lean4name9is_stringEv.exit, label %_ZNK4lean4name9is_stringEv.exit.thread

_ZNK4lean4name9is_stringEv.exit:                  ; preds = %2
  %6 = getelementptr i8, ptr %3, i64 4
  %.val.i.i.i.i.i = load i32, ptr %6, align 4
  %.mask = and i32 %.val.i.i.i.i.i, -16777216
  %7 = icmp eq i32 %.mask, 16777216
  br i1 %7, label %10, label %16

_ZNK4lean4name9is_stringEv.exit.thread:           ; preds = %2
  %8 = and i64 %4, 8589934590
  %9 = icmp eq i64 %8, 2
  br i1 %9, label %.thread, label %16

.thread:                                          ; preds = %_ZNK4lean4name9is_stringEv.exit.thread
  store ptr %3, ptr %0, align 8, !tbaa !6
  br label %_ZN4lean4nameC2ERKS0_.exit

10:                                               ; preds = %_ZNK4lean4name9is_stringEv.exit
  store ptr %3, ptr %0, align 8, !tbaa !6
  %.val.i.i.i.i = load i32, ptr %3, align 4, !tbaa !9
  %11 = icmp sgt i32 %.val.i.i.i.i, 0
  br i1 %11, label %12, label %14, !prof !12

12:                                               ; preds = %10
  %13 = add nuw nsw i32 %.val.i.i.i.i, 1
  store i32 %13, ptr %3, align 4, !tbaa !9
  br label %_ZN4lean4nameC2ERKS0_.exit

14:                                               ; preds = %10
  %.not.i.i.i.i = icmp eq i32 %.val.i.i.i.i, 0
  br i1 %.not.i.i.i.i, label %_ZN4lean4nameC2ERKS0_.exit, label %15

15:                                               ; preds = %14
  tail call void @lean_inc_ref_cold(ptr noundef nonnull %3)
  br label %_ZN4lean4nameC2ERKS0_.exit

16:                                               ; preds = %_ZNK4lean4name9is_stringEv.exit.thread, %_ZNK4lean4name9is_stringEv.exit
  tail call void @_ZN4lean4nameC1ERKS0_PKc(ptr noundef nonnull align 8 dereferenceable(8) %0, ptr noundef nonnull align 8 dereferenceable(8) %1, ptr noundef nonnull @.str.1)
  br label %_ZN4lean4nameC2ERKS0_.exit

_ZN4lean4nameC2ERKS0_.exit:                       ; preds = %15, %14, %12, %.thread, %16
  ret void
}